target datalayout = "e-m:e-p270:32:32-p271:32:32-p272:64:64-i64:64-i128:128-f80:128-n8:16:32:64-S128"
target triple = "x86_64-pc-linux-gnu"

%struct.pg_unicode_decomposition = type { i32, i8, i8, i16 }
%struct.pg_unicode_decompinfo = type { ptr, ptr, i32 }

@__const.get_code_entry.decompinfo = private unnamed_addr constant { ptr, ptr, i32, [4 x i8] } { ptr @UnicodeDecompMain, ptr @Decomp_hash_func, i32 6775, [4 x i8] zeroinitializer }, align 8
@get_code_decomposition.x = internal global i32 0, align 4

; Function Attrs: nounwind uwtable
define internal ptr @get_code_decomposition(ptr noundef %0, ptr noundef %1) #0 {
  %3 = alloca ptr, align 8
  %4 = alloca ptr, align 8
  %5 = alloca ptr, align 8
  store ptr %0, ptr %4, align 8
  store ptr %1, ptr %5, align 8
  %6 = load ptr, ptr %4, align 8
  %7 = getelementptr inbounds nuw %struct.pg_unicode_decomposition, ptr %6, i32 0, i32 2
  %8 = load i8, ptr %7, align 1
  %9 = zext i8 %8 to i32
  %10 = and i32 %9, 64
  %11 = icmp ne i32 %10, 0
  br i1 %11, label %12, label %18

12:                                               ; preds = %2
  %13 = load ptr, ptr %4, align 8
  %14 = getelementptr inbounds nuw %struct.pg_unicode_decomposition, ptr %13, i32 0, i32 3
  %15 = load i16, ptr %14, align 2
  %16 = zext i16 %15 to i32
  store i32 %16, ptr @get_code_decomposition.x, align 4
  %17 = load ptr, ptr %5, align 8
  store i32 1, ptr %17, align 4
  store ptr @get_code_decomposition.x, ptr %3, align 8
  br label %30

18:                                               ; preds = %2
  %19 = load ptr, ptr %4, align 8
  %20 = getelementptr inbounds nuw %struct.pg_unicode_decomposition, ptr %19, i32 0, i32 2
  %21 = load i8, ptr %20, align 1
  %22 = zext i8 %21 to i32
  %23 = and i32 %22, 31
  %24 = load ptr, ptr %5, align 8
  store i32 %23, ptr %24, align 4
  %25 = load ptr, ptr %4, align 8
  %26 = getelementptr inbounds nuw %struct.pg_unicode_decomposition, ptr %25, i32 0, i32 3
  %27 = load i16, ptr %26, align 2
  %28 = zext i16 %27 to i64
  %29 = getelementptr inbounds nuw [5098 x i32], ptr @UnicodeDecomp_codepoints, i64 0, i64 %28
  store ptr %29, ptr %3, align 8
  br label %30

30:                                               ; preds = %18, %12
  %31 = load ptr, ptr %3, align 8
  ret ptr %31
}

; Function Attrs: nounwind uwtable
define internal ptr @get_code_entry(i32 noundef %0) #0 {
  %2 = alloca ptr, align 8
  %3 = alloca i32, align 4
  %4 = alloca i32, align 4
  %5 = alloca i32, align 4
  %6 = alloca %struct.pg_unicode_decompinfo, align 8
  %7 = alloca i32, align 4
  store i32 %0, ptr %3, align 4
  call void @llvm.lifetime.start.p0(i64 4, ptr %4) #5
  call void @llvm.lifetime.start.p0(i64 4, ptr %5) #5
  call void @llvm.lifetime.start.p0(i64 24, ptr %6) #5
  call void @llvm.memcpy.p0.p0.i64(ptr align 8 %6, ptr align 8 @__const.get_code_entry.decompinfo, i64 24, i1 false)
  %8 = load i32, ptr %3, align 4
  %9 = call i32 @llvm.bswap.i32(i32 %8)
  store i32 %9, ptr %5, align 4
  %10 = getelementptr inbounds nuw %struct.pg_unicode_decompinfo, ptr %6, i32 0, i32 1
  %11 = load ptr, ptr %10, align 8
  %12 = call i32 %11(ptr noundef %5)
  store i32 %12, ptr %4, align 4
  %13 = load i32, ptr %4, align 4
  %14 = icmp slt i32 %13, 0
  br i1 %14, label %20, label %15

15:                                               ; preds = %1
  %16 = load i32, ptr %4, align 4
  %17 = getelementptr inbounds nuw %struct.pg_unicode_decompinfo, ptr %6, i32 0, i32 2
  %18 = load i32, ptr %17, align 8
  %19 = icmp sge i32 %16, %18
  br i1 %19, label %20, label %21

20:                                               ; preds = %15, %1
  store ptr null, ptr %2, align 8
  store i32 1, ptr %7, align 4
  br label %38

21:                                               ; preds = %15
  %22 = load i32, ptr %3, align 4
  %23 = getelementptr inbounds nuw %struct.pg_unicode_decompinfo, ptr %6, i32 0, i32 0
  %24 = load ptr, ptr %23, align 8
  %25 = load i32, ptr %4, align 4
  %26 = sext i32 %25 to i64
  %27 = getelementptr inbounds %struct.pg_unicode_decomposition, ptr %24, i64 %26
  %28 = getelementptr inbounds nuw %struct.pg_unicode_decomposition, ptr %27, i32 0, i32 0
  %29 = load i32, ptr %28, align 4
  %30 = icmp ne i32 %22, %29
  br i1 %30, label %31, label %32

31:                                               ; preds = %21
  store ptr null, ptr %2, align 8
  store i32 1, ptr %7, align 4
  br label %38

32:                                               ; preds = %21
  %33 = getelementptr inbounds nuw %struct.pg_unicode_decompinfo, ptr %6, i32 0, i32 0
  %34 = load ptr, ptr %33, align 8
  %35 = load i32, ptr %4, align 4
  %36 = sext i32 %35 to i64
  %37 = getelementptr inbounds %struct.pg_unicode_decomposition, ptr %34, i64 %36
  store ptr %37, ptr %2, align 8
  store i32 1, ptr %7, align 4
  br label %38

38:                                               ; preds = %32, %31, %20
  call void @llvm.lifetime.end.p0(i64 24, ptr %6) #5
  call void @llvm.lifetime.end.p0(i64 4, ptr %5) #5
  call void @llvm.lifetime.end.p0(i64 4, ptr %4) #5
  %39 = load ptr, ptr %2, align 8
  ret ptr %39
}

; Function Attrs: nounwind uwtable
define internal void @decompose_code(i32 noundef %0, i1 noundef zeroext %1, ptr noundef %2, ptr noundef %3) #0 {
  %5 = alloca i32, align 4
  %6 = alloca i8, align 1
  %7 = alloca ptr, align 8
  %8 = alloca ptr, align 8
  %9 = alloca ptr, align 8
  %10 = alloca i32, align 4
  %11 = alloca ptr, align 8
  %12 = alloca i32, align 4
  %13 = alloca i32, align 4
  %14 = alloca i32, align 4
  %15 = alloca i32, align 4
  %16 = alloca i32, align 4
  %17 = alloca ptr, align 8
  %18 = alloca i32, align 4
  %19 = alloca ptr, align 8
  %20 = alloca i32, align 4
  store i32 %0, ptr %5, align 4
  %21 = zext i1 %1 to i8
  store i8 %21, ptr %6, align 1
  store ptr %2, ptr %7, align 8
  store ptr %3, ptr %8, align 8
  call void @llvm.lifetime.start.p0(i64 8, ptr %9) #5
  call void @llvm.lifetime.start.p0(i64 4, ptr %10) #5
  call void @llvm.lifetime.start.p0(i64 8, ptr %11) #5
  call void @llvm.lifetime.start.p0(i64 4, ptr %12) #5
  %22 = load i32, ptr %5, align 4
  %23 = icmp uge i32 %22, 44032
  br i1 %23, label %24, label %73

24:                                               ; preds = %4
  %25 = load i32, ptr %5, align 4
  %26 = icmp ult i32 %25, 55204
  br i1 %26, label %27, label %73

27:                                               ; preds = %24
  call void @llvm.lifetime.start.p0(i64 4, ptr %13) #5
  call void @llvm.lifetime.start.p0(i64 4, ptr %14) #5
  call void @llvm.lifetime.start.p0(i64 4, ptr %15) #5
  call void @llvm.lifetime.start.p0(i64 4, ptr %16) #5
  call void @llvm.lifetime.start.p0(i64 8, ptr %17) #5
  %28 = load ptr, ptr %7, align 8
  %29 = load ptr, ptr %28, align 8
  store ptr %29, ptr %17, align 8
  %30 = load i32, ptr %5, align 4
  %31 = sub i32 %30, 44032
  store i32 %31, ptr %16, align 4
  %32 = load i32, ptr %16, align 4
  %33 = udiv i32 %32, 588
  %34 = add i32 4352, %33
  store i32 %34, ptr %13, align 4
  %35 = load i32, ptr %16, align 4
  %36 = urem i32 %35, 588
  %37 = udiv i32 %36, 28
  %38 = add i32 4449, %37
  store i32 %38, ptr %14, align 4
  %39 = load i32, ptr %16, align 4
  %40 = urem i32 %39, 28
  store i32 %40, ptr %15, align 4
  %41 = load i32, ptr %13, align 4
  %42 = load ptr, ptr %17, align 8
  %43 = load ptr, ptr %8, align 8
  %44 = load i32, ptr %43, align 4
  %45 = sext i32 %44 to i64
  %46 = getelementptr inbounds i32, ptr %42, i64 %45
  store i32 %41, ptr %46, align 4
  %47 = load ptr, ptr %8, align 8
  %48 = load i32, ptr %47, align 4
  %49 = add i32 %48, 1
  store i32 %49, ptr %47, align 4
  %50 = load i32, ptr %14, align 4
  %51 = load ptr, ptr %17, align 8
  %52 = load ptr, ptr %8, align 8
  %53 = load i32, ptr %52, align 4
  %54 = sext i32 %53 to i64
  %55 = getelementptr inbounds i32, ptr %51, i64 %54
  store i32 %50, ptr %55, align 4
  %56 = load ptr, ptr %8, align 8
  %57 = load i32, ptr %56, align 4
  %58 = add i32 %57, 1
  store i32 %58, ptr %56, align 4
  %59 = load i32, ptr %15, align 4
  %60 = icmp ne i32 %59, 0
  br i1 %60, label %61, label %72

61:                                               ; preds = %27
  %62 = load i32, ptr %15, align 4
  %63 = add i32 4519, %62
  %64 = load ptr, ptr %17, align 8
  %65 = load ptr, ptr %8, align 8
  %66 = load i32, ptr %65, align 4
  %67 = sext i32 %66 to i64
  %68 = getelementptr inbounds i32, ptr %64, i64 %67
  store i32 %63, ptr %68, align 4
  %69 = load ptr, ptr %8, align 8
  %70 = load i32, ptr %69, align 4
  %71 = add i32 %70, 1
  store i32 %71, ptr %69, align 4
  br label %72

72:                                               ; preds = %61, %27
  store i32 1, ptr %18, align 4
  call void @llvm.lifetime.end.p0(i64 8, ptr %17) #5
  call void @llvm.lifetime.end.p0(i64 4, ptr %16) #5
  call void @llvm.lifetime.end.p0(i64 4, ptr %15) #5
  call void @llvm.lifetime.end.p0(i64 4, ptr %14) #5
  call void @llvm.lifetime.end.p0(i64 4, ptr %13) #5
  br label %129

73:                                               ; preds = %24, %4
  %74 = load i32, ptr %5, align 4
  %75 = call ptr @get_code_entry(i32 noundef %74)
  store ptr %75, ptr %9, align 8
  %76 = load ptr, ptr %9, align 8
  %77 = icmp eq ptr %76, null
  br i1 %77, label %95, label %78

78:                                               ; preds = %73
  %79 = load ptr, ptr %9, align 8
  %80 = getelementptr inbounds nuw %struct.pg_unicode_decomposition, ptr %79, i32 0, i32 2
  %81 = load i8, ptr %80, align 1
  %82 = zext i8 %81 to i32
  %83 = and i32 %82, 31
  %84 = icmp eq i32 %83, 0
  br i1 %84, label %95, label %85

85:                                               ; preds = %78
  %86 = load i8, ptr %6, align 1, !range !4, !noundef !5
  %87 = trunc i8 %86 to i1
  br i1 %87, label %107, label %88

88:                                               ; preds = %85
  %89 = load ptr, ptr %9, align 8
  %90 = getelementptr inbounds nuw %struct.pg_unicode_decomposition, ptr %89, i32 0, i32 2
  %91 = load i8, ptr %90, align 1
  %92 = zext i8 %91 to i32
  %93 = and i32 %92, 32
  %94 = icmp ne i32 %93, 0
  br i1 %94, label %95, label %107

95:                                               ; preds = %88, %78, %73
  call void @llvm.lifetime.start.p0(i64 8, ptr %19) #5
  %96 = load ptr, ptr %7, align 8
  %97 = load ptr, ptr %96, align 8
  store ptr %97, ptr %19, align 8
  %98 = load i32, ptr %5, align 4
  %99 = load ptr, ptr %19, align 8
  %100 = load ptr, ptr %8, align 8
  %101 = load i32, ptr %100, align 4
  %102 = sext i32 %101 to i64
  %103 = getelementptr inbounds i32, ptr %99, i64 %102
  store i32 %98, ptr %103, align 4
  %104 = load ptr, ptr %8, align 8
  %105 = load i32, ptr %104, align 4
  %106 = add i32 %105, 1
  store i32 %106, ptr %104, align 4
  store i32 1, ptr %18, align 4
  call void @llvm.lifetime.end.p0(i64 8, ptr %19) #5
  br label %129

107:                                              ; preds = %88, %85
  %108 = load ptr, ptr %9, align 8
  %109 = call ptr @get_code_decomposition(ptr noundef %108, ptr noundef %12)
  store ptr %109, ptr %11, align 8
  store i32 0, ptr %10, align 4
  br label %110

110:                                              ; preds = %125, %107
  %111 = load i32, ptr %10, align 4
  %112 = load i32, ptr %12, align 4
  %113 = icmp slt i32 %111, %112
  br i1 %113, label %114, label %128

114:                                              ; preds = %110
  call void @llvm.lifetime.start.p0(i64 4, ptr %20) #5
  %115 = load ptr, ptr %11, align 8
  %116 = load i32, ptr %10, align 4
  %117 = sext i32 %116 to i64
  %118 = getelementptr inbounds i32, ptr %115, i64 %117
  %119 = load i32, ptr %118, align 4
  store i32 %119, ptr %20, align 4
  %120 = load i32, ptr %20, align 4
  %121 = load i8, ptr %6, align 1, !range !4, !noundef !5
  %122 = trunc i8 %121 to i1
  %123 = load ptr, ptr %7, align 8
  %124 = load ptr, ptr %8, align 8
  call void @decompose_code(i32 noundef %120, i1 noundef zeroext %122, ptr noundef %123, ptr noundef %124)
  call void @llvm.lifetime.end.p0(i64 4, ptr %20) #5
  br label %125

125:                                              ; preds = %114
  %126 = load i32, ptr %10, align 4
  %127 = add i32 %126, 1
  store i32 %127, ptr %10, align 4
  br label %110, !llvm.loop !12

128:                                              ; preds = %110
  store i32 0, ptr %18, align 4
  br label %129

129:                                              ; preds = %128, %95, %72
  call void @llvm.lifetime.end.p0(i64 4, ptr %12) #5
  call void @llvm.lifetime.end.p0(i64 8, ptr %11) #5
  call void @llvm.lifetime.end.p0(i64 4, ptr %10) #5
  call void @llvm.lifetime.end.p0(i64 8, ptr %9) #5
  %130 = load i32, ptr %18, align 4
  switch i32 %130, label %132 [
    i32 0, label %131
    i32 1, label %131
  ]

131:                                              ; preds = %129, %129
  ret void

132:                                              ; preds = %129
  unreachable
}