; Function Attrs: nofree nosync nounwind memory(readwrite, inaccessiblemem: none) uwtable
define internal fastcc void @decompose_code(i32 noundef %0, i1 noundef zeroext %1, ptr noundef nonnull readonly captures(none) %2, ptr noundef nonnull captures(none) %3) unnamed_addr #4 {
  %5 = alloca i32, align 4
  %6 = add i32 %0, -44032
  %or.cond = icmp ult i32 %6, 11172
  br i1 %or.cond, label %7, label %27

7:                                                ; preds = %4
  %8 = load ptr, ptr %2, align 8
  %.lhs.trunc = trunc nuw i32 %6 to i16
  %9 = udiv i16 %.lhs.trunc, 588
  %10 = or disjoint i16 %9, 4352
  %11 = zext nneg i16 %10 to i32
  %12 = urem i16 %.lhs.trunc, 588
  %13 = udiv i16 %12, 28
  %narrow = add nuw nsw i16 %13, 4449
  %14 = zext nneg i16 %narrow to i32
  %15 = urem i16 %.lhs.trunc, 28
  %16 = load i32, ptr %3, align 4
  %17 = sext i32 %16 to i64
  %18 = getelementptr inbounds i32, ptr %8, i64 %17
  store i32 %11, ptr %18, align 4
  %19 = load i32, ptr %3, align 4
  %20 = add i32 %19, 1
  store i32 %20, ptr %3, align 4
  %21 = sext i32 %20 to i64
  %22 = getelementptr inbounds i32, ptr %8, i64 %21
  store i32 %14, ptr %22, align 4
  %23 = load i32, ptr %3, align 4
  %24 = add i32 %23, 1
  store i32 %24, ptr %3, align 4
  %.not42 = icmp eq i16 %15, 0
  br i1 %.not42, label %.loopexit, label %25

25:                                               ; preds = %7
  %narrow54 = add nuw nsw i16 %15, 4519
  %26 = zext nneg i16 %narrow54 to i32
  br label %.loopexit.sink.split

27:                                               ; preds = %4
  call void @llvm.lifetime.start.p0(i64 4, ptr nonnull %5) #7
  %28 = tail call i32 @llvm.bswap.i32(i32 %0)
  store i32 %28, ptr %5, align 4
  br label %29

29:                                               ; preds = %29, %27
  %.014.i.i = phi ptr [ %5, %27 ], [ %31, %29 ]
  %.0813.i.i = phi i32 [ 1, %27 ], [ %37, %29 ]
  %.0912.i.i = phi i32 [ 0, %27 ], [ %35, %29 ]
  %.01011.i.i = phi i64 [ 4, %27 ], [ %30, %29 ]
  %30 = add nsw i64 %.01011.i.i, -1
  %31 = getelementptr inbounds nuw i8, ptr %.014.i.i, i64 1
  %32 = load i8, ptr %.014.i.i, align 1
  %33 = mul i32 %.0912.i.i, 257
  %34 = zext i8 %32 to i32
  %35 = add i32 %33, %34
  %36 = mul i32 %.0813.i.i, 8191
  %37 = add i32 %36, %34
  %.not.i.i = icmp eq i64 %30, 0
  br i1 %.not.i.i, label %Decomp_hash_func.exit.i, label %29, !llvm.loop !7

Decomp_hash_func.exit.i:                          ; preds = %29
  %38 = urem i32 %35, 13551
  %39 = zext nneg i32 %38 to i64
  %40 = getelementptr inbounds nuw [13551 x i16], ptr @Decomp_hash_func.h, i64 0, i64 %39
  %41 = load i16, ptr %40, align 2
  %42 = sext i16 %41 to i32
  %43 = urem i32 %37, 13551
  %44 = zext nneg i32 %43 to i64
  %45 = getelementptr inbounds nuw [13551 x i16], ptr @Decomp_hash_func.h, i64 0, i64 %44
  %46 = load i16, ptr %45, align 2
  %47 = sext i16 %46 to i32
  %48 = add nsw i32 %47, %42
  %or.cond.i = icmp ugt i32 %48, 6774
  br i1 %or.cond.i, label %get_code_entry.exit.thread, label %49

49:                                               ; preds = %Decomp_hash_func.exit.i
  %50 = zext nneg i32 %48 to i64
  %51 = getelementptr inbounds nuw %struct.pg_unicode_decomposition, ptr @UnicodeDecompMain, i64 %50
  %52 = load i32, ptr %51, align 8
  %.not.i = icmp eq i32 %0, %52
  br i1 %.not.i, label %53, label %get_code_entry.exit.thread

get_code_entry.exit.thread:                       ; preds = %Decomp_hash_func.exit.i, %49
  call void @llvm.lifetime.end.p0(i64 4, ptr nonnull %5) #7
  br label %61

53:                                               ; preds = %49
  call void @llvm.lifetime.end.p0(i64 4, ptr nonnull %5) #7
  %54 = getelementptr inbounds nuw i8, ptr %51, i64 5
  %55 = load i8, ptr %54, align 1
  %56 = zext i8 %55 to i32
  %57 = and i32 %56, 31
  %58 = icmp eq i32 %57, 0
  br i1 %58, label %61, label %59

59:                                               ; preds = %53
  %60 = and i32 %56, 32
  %.not = icmp eq i32 %60, 0
  %or.cond43 = or i1 %1, %.not
  br i1 %or.cond43, label %64, label %61

61:                                               ; preds = %get_code_entry.exit.thread, %59, %53
  %62 = load ptr, ptr %2, align 8
  %63 = load i32, ptr %3, align 4
  br label %.loopexit.sink.split

64:                                               ; preds = %59
  %65 = and i32 %56, 64
  %.not.i44 = icmp eq i32 %65, 0
  %66 = getelementptr inbounds nuw i8, ptr %51, i64 6
  %67 = load i16, ptr %66, align 2
  br i1 %.not.i44, label %70, label %68

68:                                               ; preds = %64
  %69 = zext i16 %67 to i32
  store i32 %69, ptr @get_code_decomposition.x, align 4
  br label %get_code_decomposition.exit

70:                                               ; preds = %64
  %71 = zext i16 %67 to i64
  %72 = getelementptr inbounds nuw [5098 x i32], ptr @UnicodeDecomp_codepoints, i64 0, i64 %71
  %73 = zext nneg i32 %57 to i64
  br label %get_code_decomposition.exit

get_code_decomposition.exit:                      ; preds = %68, %70
  %.046 = phi i64 [ %73, %70 ], [ 1, %68 ]
  %.0.i45 = phi ptr [ %72, %70 ], [ @get_code_decomposition.x, %68 ]
  br label %74

74:                                               ; preds = %get_code_decomposition.exit, %74
  %indvars.iv = phi i64 [ 0, %get_code_decomposition.exit ], [ %indvars.iv.next, %74 ]
  %75 = getelementptr inbounds nuw i32, ptr %.0.i45, i64 %indvars.iv
  %76 = load i32, ptr %75, align 4
  tail call fastcc void @decompose_code(i32 noundef %76, i1 noundef zeroext %1, ptr noundef %2, ptr noundef %3)
  %indvars.iv.next = add nuw nsw i64 %indvars.iv, 1
  %exitcond.not = icmp eq i64 %indvars.iv.next, %.046
  br i1 %exitcond.not, label %.loopexit, label %74, !llvm.loop !12

.loopexit.sink.split:                             ; preds = %61, %25
  %.sink64 = phi i32 [ %24, %25 ], [ %63, %61 ]
  %.sink62 = phi ptr [ %8, %25 ], [ %62, %61 ]
  %.sink = phi i32 [ %26, %25 ], [ %0, %61 ]
  %77 = sext i32 %.sink64 to i64
  %78 = getelementptr inbounds i32, ptr %.sink62, i64 %77
  store i32 %.sink, ptr %78, align 4
  %79 = load i32, ptr %3, align 4
  %80 = add i32 %79, 1
  store i32 %80, ptr %3, align 4
  br label %.loopexit

.loopexit:                                        ; preds = %74, %.loopexit.sink.split, %7
  ret void
}